target datalayout = "e-m:e-p270:32:32-p271:32:32-p272:64:64-i64:64-i128:128-f80:128-n8:16:32:64-S128"
target triple = "x86_64-pc-linux-gnu"

%struct.Vmem = type { ptr, i64, i64 }
%union.SourceSpan = type { i64 }
%struct.Ast_ = type { %union.SourceSpan, i32, i8, %union.anon.62 }
%union.anon.62 = type { %struct.AstDocDirective_ }
%struct.AstDocDirective_ = type { i8, %union.anon.65 }
%union.anon.65 = type { %struct.anon.66 }
%struct.anon.66 = type { ptr, %union.SourceSpan, i8 }
%struct.AstAssertStmt = type { i8, i32, i32, ptr }
%struct.Expr_ = type { ptr, %union.SourceSpan, i16, %union.anon.29 }
%union.anon.29 = type { %struct.ExprAnySwitch }
%struct.ExprAnySwitch = type { i8, %union.anon.31 }
%union.anon.31 = type { %struct.anon.32 }
%struct.anon.32 = type { ptr, %union.SourceSpan, ptr }
%struct.ExprConst = type { i16, %union.anon.38 }
%union.anon.38 = type { %struct.Int }
%struct.Int = type { %struct.Int128_, i32 }
%struct.Int128_ = type { i64, i64 }
%struct.VHeader_ = type { i32, i32, [0 x i8] }
%struct.anon.67 = type { ptr, ptr, ptr }

@expr_arena = external global %struct.Vmem, align 8
@ast_arena = external global %struct.Vmem, align 8
@.str.87 = private unnamed_addr constant [30 x i8] c"Only expressions are allowed.\00", align 1
@.str.88 = private unnamed_addr constant [3 x i8] c"%s\00", align 1

; Function Attrs: nounwind uwtable
define internal i32 @astid(ptr noundef %0) #0 {
  %2 = alloca ptr, align 8
  store ptr %0, ptr %2, align 8
  %3 = load ptr, ptr %2, align 8
  %4 = load ptr, ptr @ast_arena, align 8
  %5 = ptrtoint ptr %3 to i64
  %6 = ptrtoint ptr %4 to i64
  %7 = sub i64 %5, %6
  %8 = sdiv exact i64 %7, 48
  %9 = trunc i64 %8 to i32
  ret i32 %9
}

; Function Attrs: nounwind uwtable
define internal i32 @exprid(ptr noundef %0) #0 {
  %2 = alloca ptr, align 8
  store ptr %0, ptr %2, align 8
  %3 = load ptr, ptr %2, align 8
  %4 = load ptr, ptr @expr_arena, align 8
  %5 = ptrtoint ptr %3 to i64
  %6 = ptrtoint ptr %4 to i64
  %7 = sub i64 %5, %6
  %8 = sdiv exact i64 %7, 56
  %9 = trunc i64 %8 to i32
  ret i32 %9
}

; Function Attrs: nounwind uwtable
define internal ptr @ast_calloc() #0 {
  %1 = call ptr @vmem_alloc(ptr noundef @ast_arena, i64 noundef 48)
  ret ptr %1
}

; Function Attrs: nounwind uwtable
define internal zeroext i1 @assert_create_from_contract(ptr noundef %0, ptr noundef %1, ptr noundef %2, i64 %3) #0 {
  %5 = alloca ptr, align 8
  %6 = alloca ptr, align 8
  %7 = alloca ptr, align 8
  %8 = alloca i32, align 4
  %9 = alloca ptr, align 8
  %10 = alloca ptr, align 8
  %11 = alloca %union.SourceSpan, align 8
  %12 = alloca i32, align 4
  %13 = alloca ptr, align 8
  %14 = alloca i1, align 1
  %15 = alloca %union.SourceSpan, align 8
  %16 = alloca ptr, align 8
  %17 = alloca ptr, align 8
  %18 = alloca ptr, align 8
  %19 = alloca ptr, align 8
  %20 = alloca ptr, align 8
  %21 = alloca i32, align 4
  %22 = alloca i32, align 4
  %23 = alloca ptr, align 8
  %24 = alloca ptr, align 8
  %25 = alloca %union.SourceSpan, align 8
  %26 = alloca ptr, align 8
  %27 = alloca ptr, align 8
  %28 = getelementptr inbounds %union.SourceSpan, ptr %15, i32 0, i32 0
  store i64 %3, ptr %28, align 8
  store ptr %0, ptr %16, align 8
  store ptr %1, ptr %17, align 8
  store ptr %2, ptr %18, align 8
  %29 = load ptr, ptr %17, align 8
  %30 = call ptr @copy_ast_single(ptr noundef %29)
  store ptr %30, ptr %17, align 8
  %31 = load ptr, ptr %17, align 8
  %32 = getelementptr inbounds %struct.Ast_, ptr %31, i32 0, i32 3
  %33 = getelementptr inbounds %struct.AstDocDirective_, ptr %32, i32 0, i32 1
  %34 = getelementptr inbounds %struct.anon.67, ptr %33, i32 0, i32 0
  %35 = load ptr, ptr %34, align 8
  store ptr %35, ptr %19, align 8
  %36 = load ptr, ptr %19, align 8
  %37 = getelementptr inbounds %struct.Expr_, ptr %36, i32 0, i32 3
  %38 = load ptr, ptr %37, align 8
  store ptr %38, ptr %20, align 8
  store i32 0, ptr %21, align 4
  %39 = load ptr, ptr %20, align 8
  store ptr %39, ptr %9, align 8
  %40 = load ptr, ptr %9, align 8
  %41 = icmp ne ptr %40, null
  br i1 %41, label %43, label %42

42:                                               ; preds = %4
  store i32 0, ptr %8, align 4
  br label %48

43:                                               ; preds = %4
  %44 = load ptr, ptr %9, align 8
  store ptr %44, ptr %10, align 8
  %45 = load ptr, ptr %10, align 8
  %46 = getelementptr inbounds %struct.VHeader_, ptr %45, i64 -1
  %47 = load i32, ptr %46, align 4
  store i32 %47, ptr %8, align 4
  br label %48

48:                                               ; preds = %43, %42
  %49 = load i32, ptr %8, align 4
  store i32 %49, ptr %22, align 4
  br label %50

50:                                               ; preds = %157, %48
  %51 = load i32, ptr %21, align 4
  %52 = load i32, ptr %22, align 4
  %53 = icmp ult i32 %51, %52
  br i1 %53, label %54, label %160

54:                                               ; preds = %50
  %55 = load ptr, ptr %20, align 8
  %56 = load i32, ptr %21, align 4
  %57 = zext i32 %56 to i64
  %58 = getelementptr inbounds ptr, ptr %55, i64 %57
  %59 = load ptr, ptr %58, align 8
  store ptr %59, ptr %23, align 8
  %60 = load ptr, ptr %23, align 8
  %61 = getelementptr inbounds %struct.Expr_, ptr %60, i32 0, i32 2
  %62 = load i16, ptr %61, align 8
  %63 = and i16 %62, 255
  %64 = zext i16 %63 to i32
  %65 = icmp eq i32 %64, 23
  br i1 %65, label %66, label %71

66:                                               ; preds = %54
  %67 = load ptr, ptr %23, align 8
  %68 = getelementptr inbounds %struct.Expr_, ptr %67, i32 0, i32 1
  %69 = getelementptr inbounds %union.SourceSpan, ptr %68, i32 0, i32 0
  %70 = load i64, ptr %69, align 8
  call void (i64, ptr, ...) @sema_error_at(i64 %70, ptr noundef @.str.87)
  store i1 false, ptr %14, align 1
  br label %161

71:                                               ; preds = %54
  %72 = load ptr, ptr %16, align 8
  %73 = load ptr, ptr %23, align 8
  %74 = call zeroext i1 @sema_analyse_cond_expr(ptr noundef %72, ptr noundef %73)
  br i1 %74, label %76, label %75

75:                                               ; preds = %71
  store i1 false, ptr %14, align 1
  br label %161

76:                                               ; preds = %71
  %77 = load ptr, ptr %17, align 8
  %78 = getelementptr inbounds %struct.Ast_, ptr %77, i32 0, i32 3
  %79 = getelementptr inbounds %struct.AstDocDirective_, ptr %78, i32 0, i32 1
  %80 = getelementptr inbounds %struct.anon.67, ptr %79, i32 0, i32 1
  %81 = load ptr, ptr %80, align 8
  store ptr %81, ptr %24, align 8
  %82 = load ptr, ptr %24, align 8
  %83 = icmp ne ptr %82, null
  br i1 %83, label %90, label %84

84:                                               ; preds = %76
  %85 = load ptr, ptr %17, align 8
  %86 = getelementptr inbounds %struct.Ast_, ptr %85, i32 0, i32 3
  %87 = getelementptr inbounds %struct.AstDocDirective_, ptr %86, i32 0, i32 1
  %88 = getelementptr inbounds %struct.anon.67, ptr %87, i32 0, i32 2
  %89 = load ptr, ptr %88, align 8
  store ptr %89, ptr %24, align 8
  br label %90

90:                                               ; preds = %84, %76
  %91 = load ptr, ptr %23, align 8
  store ptr %91, ptr %7, align 8
  %92 = load ptr, ptr %7, align 8
  %93 = getelementptr inbounds %struct.Expr_, ptr %92, i32 0, i32 2
  %94 = load i16, ptr %93, align 8
  %95 = and i16 %94, 255
  %96 = zext i16 %95 to i32
  %97 = icmp eq i32 %96, 14
  br i1 %97, label %98, label %116

98:                                               ; preds = %90
  %99 = load ptr, ptr %23, align 8
  %100 = getelementptr inbounds %struct.Expr_, ptr %99, i32 0, i32 3
  %101 = getelementptr inbounds %struct.ExprConst, ptr %100, i32 0, i32 1
  %102 = load i8, ptr %101, align 8
  %103 = trunc i8 %102 to i1
  br i1 %103, label %104, label %105

104:                                              ; preds = %98
  br label %157

105:                                              ; preds = %98
  %106 = load i64, ptr %15, align 8
  %107 = icmp ne i64 %106, 0
  br i1 %107, label %108, label %109

108:                                              ; preds = %105
  call void @llvm.memcpy.p0.p0.i64(ptr align 8 %25, ptr align 8 %15, i64 8, i1 false)
  br label %112

109:                                              ; preds = %105
  %110 = load ptr, ptr %23, align 8
  %111 = getelementptr inbounds %struct.Expr_, ptr %110, i32 0, i32 1
  call void @llvm.memcpy.p0.p0.i64(ptr align 8 %25, ptr align 8 %111, i64 8, i1 false)
  br label %112

112:                                              ; preds = %109, %108
  %113 = load ptr, ptr %24, align 8
  %114 = getelementptr inbounds %union.SourceSpan, ptr %25, i32 0, i32 0
  %115 = load i64, ptr %114, align 8
  call void (i64, ptr, ...) @sema_error_at(i64 %115, ptr noundef @.str.88, ptr noundef %113)
  store i1 false, ptr %14, align 1
  br label %161

116:                                              ; preds = %90
  %117 = load ptr, ptr %23, align 8
  %118 = getelementptr inbounds %struct.Expr_, ptr %117, i32 0, i32 1
  %119 = getelementptr inbounds %union.SourceSpan, ptr %118, i32 0, i32 0
  %120 = load i64, ptr %119, align 8
  store i64 %120, ptr %11, align 8
  store i32 3, ptr %12, align 4
  %121 = call ptr @ast_calloc()
  store ptr %121, ptr %13, align 8
  %122 = load ptr, ptr %13, align 8
  call void @llvm.memcpy.p0.p0.i64(ptr align 8 %122, ptr align 8 %11, i64 8, i1 false)
  %123 = load i32, ptr %12, align 4
  %124 = load ptr, ptr %13, align 8
  %125 = getelementptr inbounds %struct.Ast_, ptr %124, i32 0, i32 2
  %126 = trunc i32 %123 to i8
  store i8 %126, ptr %125, align 4
  %127 = load ptr, ptr %13, align 8
  store ptr %127, ptr %26, align 8
  %128 = load ptr, ptr %26, align 8
  %129 = getelementptr inbounds %struct.Ast_, ptr %128, i32 0, i32 3
  %130 = getelementptr inbounds %struct.AstAssertStmt, ptr %129, i32 0, i32 0
  store i8 1, ptr %130, align 8
  %131 = load ptr, ptr %23, align 8
  %132 = call i32 @exprid(ptr noundef %131)
  %133 = load ptr, ptr %26, align 8
  %134 = getelementptr inbounds %struct.Ast_, ptr %133, i32 0, i32 3
  %135 = getelementptr inbounds %struct.AstAssertStmt, ptr %134, i32 0, i32 2
  store i32 %132, ptr %135, align 8
  %136 = load ptr, ptr %23, align 8
  %137 = getelementptr inbounds %struct.Expr_, ptr %136, i32 0, i32 1
  %138 = getelementptr inbounds %union.SourceSpan, ptr %137, i32 0, i32 0
  %139 = load i64, ptr %138, align 8
  %140 = call ptr @expr_new(i32 noundef 14, i64 %139)
  store ptr %140, ptr %27, align 8
  %141 = load ptr, ptr %27, align 8
  %142 = load ptr, ptr %24, align 8
  call void @expr_rewrite_to_string(ptr noundef %141, ptr noundef %142)
  %143 = load ptr, ptr %27, align 8
  %144 = call i32 @exprid(ptr noundef %143)
  %145 = load ptr, ptr %26, align 8
  %146 = getelementptr inbounds %struct.Ast_, ptr %145, i32 0, i32 3
  %147 = getelementptr inbounds %struct.AstAssertStmt, ptr %146, i32 0, i32 1
  store i32 %144, ptr %147, align 4
  %148 = load ptr, ptr %18, align 8
  %149 = load ptr, ptr %26, align 8
  store ptr %148, ptr %5, align 8
  store ptr %149, ptr %6, align 8
  %150 = load ptr, ptr %6, align 8
  %151 = call i32 @astid(ptr noundef %150)
  %152 = load ptr, ptr %5, align 8
  %153 = load ptr, ptr %152, align 8
  store i32 %151, ptr %153, align 4
  %154 = load ptr, ptr %6, align 8
  %155 = getelementptr inbounds %struct.Ast_, ptr %154, i32 0, i32 1
  %156 = load ptr, ptr %5, align 8
  store ptr %155, ptr %156, align 8
  br label %157

157:                                              ; preds = %116, %104
  %158 = load i32, ptr %21, align 4
  %159 = add i32 %158, 1
  store i32 %159, ptr %21, align 4
  br label %50, !llvm.loop !45

160:                                              ; preds = %50
  store i1 true, ptr %14, align 1
  br label %161

161:                                              ; preds = %160, %112, %75, %66
  %162 = load i1, ptr %14, align 1
  ret i1 %162
}