; Function Attrs: nounwind uwtable
define internal fastcc zeroext i1 @assert_create_from_contract(ptr noundef %0, ptr noundef %1, ptr nocapture noundef %2, i64 %3) unnamed_addr #0 {
  %5 = tail call ptr @copy_ast_single(ptr noundef %1) #9
  %6 = getelementptr inbounds i8, ptr %5, i64 24
  %7 = load ptr, ptr %6, align 8
  %8 = getelementptr inbounds i8, ptr %7, i64 24
  %9 = load ptr, ptr %8, align 8
  %.not = icmp eq ptr %9, null
  br i1 %.not, label %.loopexit, label %10

10:                                               ; preds = %4
  %11 = getelementptr inbounds i8, ptr %9, i64 -8
  %12 = load i32, ptr %11, align 4
  %13 = icmp eq i32 %12, 0
  br i1 %13, label %.loopexit, label %.lr.ph

.lr.ph:                                           ; preds = %10
  %14 = getelementptr inbounds i8, ptr %5, i64 32
  %15 = getelementptr inbounds i8, ptr %5, i64 40
  %16 = zext i32 %12 to i64
  br label %17

17:                                               ; preds = %.lr.ph, %76
  %indvars.iv = phi i64 [ 0, %.lr.ph ], [ %indvars.iv.next, %76 ]
  %18 = phi i1 [ false, %.lr.ph ], [ %77, %76 ]
  %19 = getelementptr inbounds ptr, ptr %9, i64 %indvars.iv
  %20 = load ptr, ptr %19, align 8
  %21 = getelementptr inbounds i8, ptr %20, i64 16
  %22 = load i16, ptr %21, align 8
  %23 = and i16 %22, 255
  %24 = icmp eq i16 %23, 23
  br i1 %24, label %25, label %28

25:                                               ; preds = %17
  %26 = getelementptr inbounds i8, ptr %20, i64 8
  %27 = load i64, ptr %26, align 8
  tail call void (i64, ptr, ...) @sema_error_at(i64 %27, ptr noundef nonnull @.str.87) #9
  br label %.loopexit

28:                                               ; preds = %17
  %29 = tail call zeroext i1 @sema_analyse_cond_expr(ptr noundef %0, ptr noundef nonnull %20) #9
  br i1 %29, label %30, label %.loopexit

30:                                               ; preds = %28
  %31 = load ptr, ptr %14, align 8
  %.not54 = icmp eq ptr %31, null
  br i1 %.not54, label %32, label %34

32:                                               ; preds = %30
  %33 = load ptr, ptr %15, align 8
  br label %34

34:                                               ; preds = %32, %30
  %.049 = phi ptr [ %31, %30 ], [ %33, %32 ]
  %35 = load i16, ptr %21, align 8
  %36 = and i16 %35, 255
  %37 = icmp eq i16 %36, 14
  br i1 %37, label %38, label %46

38:                                               ; preds = %34
  %39 = getelementptr inbounds i8, ptr %20, i64 32
  %40 = load i8, ptr %39, align 8
  %41 = trunc i8 %40 to i1
  br i1 %41, label %76, label %42

42:                                               ; preds = %38
  %.not55 = icmp eq i64 %3, 0
  br i1 %.not55, label %43, label %45

43:                                               ; preds = %42
  %44 = getelementptr inbounds i8, ptr %20, i64 8
  %.sroa.0.0.copyload6 = load i64, ptr %44, align 8
  br label %45

45:                                               ; preds = %42, %43
  %.sroa.0.0 = phi i64 [ %.sroa.0.0.copyload6, %43 ], [ %3, %42 ]
  tail call void (i64, ptr, ...) @sema_error_at(i64 %.sroa.0.0, ptr noundef nonnull @.str.88, ptr noundef %.049) #9
  br label %.loopexit

46:                                               ; preds = %34
  %47 = getelementptr inbounds i8, ptr %20, i64 8
  %48 = load i64, ptr %47, align 8
  %49 = tail call ptr @vmem_alloc(ptr noundef nonnull @ast_arena, i64 noundef 48) #9
  store i64 %48, ptr %49, align 8
  %50 = getelementptr inbounds i8, ptr %49, i64 12
  store i8 3, ptr %50, align 4
  %51 = getelementptr inbounds i8, ptr %49, i64 16
  store i8 1, ptr %51, align 8
  %52 = load ptr, ptr @expr_arena, align 8
  %53 = ptrtoint ptr %20 to i64
  %54 = ptrtoint ptr %52 to i64
  %55 = sub i64 %53, %54
  %56 = sdiv exact i64 %55, 56
  %57 = trunc i64 %56 to i32
  %58 = getelementptr inbounds i8, ptr %49, i64 24
  store i32 %57, ptr %58, align 8
  %59 = load i64, ptr %47, align 8
  %60 = tail call ptr @expr_new(i32 noundef 14, i64 %59) #9
  tail call void @expr_rewrite_to_string(ptr noundef %60, ptr noundef %.049) #9
  %61 = load ptr, ptr @expr_arena, align 8
  %62 = ptrtoint ptr %60 to i64
  %63 = ptrtoint ptr %61 to i64
  %64 = sub i64 %62, %63
  %65 = sdiv exact i64 %64, 56
  %66 = trunc i64 %65 to i32
  %67 = getelementptr inbounds i8, ptr %49, i64 20
  store i32 %66, ptr %67, align 4
  %68 = load ptr, ptr @ast_arena, align 8
  %69 = ptrtoint ptr %49 to i64
  %70 = ptrtoint ptr %68 to i64
  %71 = sub i64 %69, %70
  %72 = sdiv exact i64 %71, 48
  %73 = trunc i64 %72 to i32
  %74 = load ptr, ptr %2, align 8
  store i32 %73, ptr %74, align 4
  %75 = getelementptr inbounds i8, ptr %49, i64 8
  store ptr %75, ptr %2, align 8
  br label %76

76:                                               ; preds = %38, %46
  %indvars.iv.next = add nuw nsw i64 %indvars.iv, 1
  %77 = icmp uge i64 %indvars.iv.next, %16
  %exitcond = icmp eq i64 %indvars.iv.next, %16
  br i1 %exitcond, label %.loopexit, label %17, !llvm.loop !57

.loopexit:                                        ; preds = %28, %76, %4, %10, %45, %25
  %78 = phi i1 [ %18, %45 ], [ %18, %25 ], [ true, %10 ], [ true, %4 ], [ %18, %28 ], [ %77, %76 ]
  ret i1 %78
}